target datalayout = "e-m:e-p270:32:32-p271:32:32-p272:64:64-i64:64-i128:128-f80:128-n8:16:32:64-S128"
target triple = "x86_64-unknown-linux-gnu"

%struct.FDChardev = type { %struct.Chardev, ptr, ptr, i32 }
%struct.Chardev = type { %struct.Object, %struct.QemuMutex, ptr, ptr, ptr, i32, i32, i8, ptr, ptr, [1 x i64] }
%struct.Object = type { ptr, ptr, ptr, i32, ptr }
%struct.QemuMutex = type { %union.pthread_mutex_t, i8 }
%union.pthread_mutex_t = type { %struct.__pthread_mutex_s }
%struct.__pthread_mutex_s = type { i32, i32, i32, i32, i32, i16, i16, %struct.__pthread_internal_list }
%struct.__pthread_internal_list = type { ptr, ptr }
%struct.QIOChannelFile = type { %struct.QIOChannel, i32 }
%struct.QIOChannel = type { %struct.Object, i32, ptr, ptr, ptr, ptr, ptr, i8 }
%struct.QEMUSerialSetParams = type { i32, i32, i32, i32 }

@.str.1 = private unnamed_addr constant [11 x i8] c"chardev-fd\00", align 1
@.str.8 = private unnamed_addr constant [104 x i8] c"/home/dtcxzyw/WorkSpace/Projects/compilers/llvm-opt-benchmark/bench/qemu/qemu/include/chardev/char-fd.h\00", align 1
@__func__.FD_CHARDEV = private unnamed_addr constant [11 x i8] c"FD_CHARDEV\00", align 1
@.str.9 = private unnamed_addr constant [17 x i8] c"qio-channel-file\00", align 1
@.str.10 = private unnamed_addr constant [104 x i8] c"/home/dtcxzyw/WorkSpace/Projects/compilers/llvm-opt-benchmark/bench/qemu/qemu/include/io/channel-file.h\00", align 1
@__func__.QIO_CHANNEL_FILE = private unnamed_addr constant [17 x i8] c"QIO_CHANNEL_FILE\00", align 1

; Function Attrs: nounwind sspstrong uwtable
define internal ptr @QIO_CHANNEL_FILE(ptr noundef %obj) #0 {
entry:
  %obj.addr = alloca ptr, align 8
  store ptr %obj, ptr %obj.addr, align 8
  %0 = load ptr, ptr %obj.addr, align 8
  %call = call ptr @object_dynamic_cast_assert(ptr noundef %0, ptr noundef @.str.9, ptr noundef @.str.10, i32 noundef 28, ptr noundef @__func__.QIO_CHANNEL_FILE)
  ret ptr %call
}

; Function Attrs: nounwind sspstrong uwtable
define internal ptr @FD_CHARDEV(ptr noundef %obj) #0 {
entry:
  %obj.addr = alloca ptr, align 8
  store ptr %obj, ptr %obj.addr, align 8
  %0 = load ptr, ptr %obj.addr, align 8
  %call = call ptr @object_dynamic_cast_assert(ptr noundef %0, ptr noundef @.str.1, ptr noundef @.str.8, i32 noundef 42, ptr noundef @__func__.FD_CHARDEV)
  ret ptr %call
}

; Function Attrs: nounwind sspstrong uwtable
define internal i32 @tty_serial_ioctl(ptr noundef %chr, i32 noundef %cmd, ptr noundef %arg) #0 {
entry:
  %retval = alloca i32, align 4
  %chr.addr = alloca ptr, align 8
  %cmd.addr = alloca i32, align 4
  %arg.addr = alloca ptr, align 8
  %s = alloca ptr, align 8
  %fioc = alloca ptr, align 8
  %ssp = alloca ptr, align 8
  %enable = alloca i32, align 4
  %sarg = alloca i32, align 4
  %targ = alloca ptr, align 8
  %sarg37 = alloca i32, align 4
  %targ38 = alloca i32, align 4
  store ptr %chr, ptr %chr.addr, align 8
  store i32 %cmd, ptr %cmd.addr, align 4
  store ptr %arg, ptr %arg.addr, align 8
  %0 = load ptr, ptr %chr.addr, align 8
  %call = call ptr @FD_CHARDEV(ptr noundef %0)
  store ptr %call, ptr %s, align 8
  %1 = load ptr, ptr %s, align 8
  %ioc_in = getelementptr inbounds %struct.FDChardev, ptr %1, i32 0, i32 1
  %2 = load ptr, ptr %ioc_in, align 8
  %call1 = call ptr @QIO_CHANNEL_FILE(ptr noundef %2)
  store ptr %call1, ptr %fioc, align 8
  %3 = load i32, ptr %cmd.addr, align 4
  switch i32 %3, label %sw.default [
    i32 1, label %sw.bb
    i32 2, label %sw.bb2
    i32 14, label %sw.bb5
    i32 13, label %sw.bb36
  ]

sw.bb:                                            ; preds = %entry
  %4 = load ptr, ptr %arg.addr, align 8
  store ptr %4, ptr %ssp, align 8
  %5 = load ptr, ptr %fioc, align 8
  %fd = getelementptr inbounds %struct.QIOChannelFile, ptr %5, i32 0, i32 1
  %6 = load i32, ptr %fd, align 8
  %7 = load ptr, ptr %ssp, align 8
  %speed = getelementptr inbounds %struct.QEMUSerialSetParams, ptr %7, i32 0, i32 0
  %8 = load i32, ptr %speed, align 4
  %9 = load ptr, ptr %ssp, align 8
  %parity = getelementptr inbounds %struct.QEMUSerialSetParams, ptr %9, i32 0, i32 1
  %10 = load i32, ptr %parity, align 4
  %11 = load ptr, ptr %ssp, align 8
  %data_bits = getelementptr inbounds %struct.QEMUSerialSetParams, ptr %11, i32 0, i32 2
  %12 = load i32, ptr %data_bits, align 4
  %13 = load ptr, ptr %ssp, align 8
  %stop_bits = getelementptr inbounds %struct.QEMUSerialSetParams, ptr %13, i32 0, i32 3
  %14 = load i32, ptr %stop_bits, align 4
  call void @tty_serial_init(i32 noundef %6, i32 noundef %8, i32 noundef %10, i32 noundef %12, i32 noundef %14)
  br label %sw.epilog

sw.bb2:                                           ; preds = %entry
  %15 = load ptr, ptr %arg.addr, align 8
  %16 = load i32, ptr %15, align 4
  store i32 %16, ptr %enable, align 4
  %17 = load i32, ptr %enable, align 4
  %tobool = icmp ne i32 %17, 0
  br i1 %tobool, label %if.then, label %if.end

if.then:                                          ; preds = %sw.bb2
  %18 = load ptr, ptr %fioc, align 8
  %fd3 = getelementptr inbounds %struct.QIOChannelFile, ptr %18, i32 0, i32 1
  %19 = load i32, ptr %fd3, align 8
  %call4 = call i32 @tcsendbreak(i32 noundef %19, i32 noundef 1) #8
  br label %if.end

if.end:                                           ; preds = %if.then, %sw.bb2
  br label %sw.epilog

sw.bb5:                                           ; preds = %entry
  store i32 0, ptr %sarg, align 4
  %20 = load ptr, ptr %arg.addr, align 8
  store ptr %20, ptr %targ, align 8
  %21 = load ptr, ptr %fioc, align 8
  %fd6 = getelementptr inbounds %struct.QIOChannelFile, ptr %21, i32 0, i32 1
  %22 = load i32, ptr %fd6, align 8
  %call7 = call i32 (i32, i64, ...) @ioctl(i32 noundef %22, i64 noundef 21525, ptr noundef %sarg) #8
  %23 = load ptr, ptr %targ, align 8
  store i32 0, ptr %23, align 4
  %24 = load i32, ptr %sarg, align 4
  %and = and i32 %24, 32
  %tobool8 = icmp ne i32 %and, 0
  br i1 %tobool8, label %if.then9, label %if.end10

if.then9:                                         ; preds = %sw.bb5
  %25 = load ptr, ptr %targ, align 8
  %26 = load i32, ptr %25, align 4
  %or = or i32 %26, 32
  store i32 %or, ptr %25, align 4
  br label %if.end10

if.end10:                                         ; preds = %if.then9, %sw.bb5
  %27 = load i32, ptr %sarg, align 4
  %and11 = and i32 %27, 64
  %tobool12 = icmp ne i32 %and11, 0
  br i1 %tobool12, label %if.then13, label %if.end15

if.then13:                                        ; preds = %if.end10
  %28 = load ptr, ptr %targ, align 8
  %29 = load i32, ptr %28, align 4
  %or14 = or i32 %29, 64
  store i32 %or14, ptr %28, align 4
  br label %if.end15

if.end15:                                         ; preds = %if.then13, %if.end10
  %30 = load i32, ptr %sarg, align 4
  %and16 = and i32 %30, 256
  %tobool17 = icmp ne i32 %and16, 0
  br i1 %tobool17, label %if.then18, label %if.end20

if.then18:                                        ; preds = %if.end15
  %31 = load ptr, ptr %targ, align 8
  %32 = load i32, ptr %31, align 4
  %or19 = or i32 %32, 256
  store i32 %or19, ptr %31, align 4
  br label %if.end20

if.end20:                                         ; preds = %if.then18, %if.end15
  %33 = load i32, ptr %sarg, align 4
  %and21 = and i32 %33, 128
  %tobool22 = icmp ne i32 %and21, 0
  br i1 %tobool22, label %if.then23, label %if.end25

if.then23:                                        ; preds = %if.end20
  %34 = load ptr, ptr %targ, align 8
  %35 = load i32, ptr %34, align 4
  %or24 = or i32 %35, 128
  store i32 %or24, ptr %34, align 4
  br label %if.end25

if.end25:                                         ; preds = %if.then23, %if.end20
  %36 = load i32, ptr %sarg, align 4
  %and26 = and i32 %36, 2
  %tobool27 = icmp ne i32 %and26, 0
  br i1 %tobool27, label %if.then28, label %if.end30

if.then28:                                        ; preds = %if.end25
  %37 = load ptr, ptr %targ, align 8
  %38 = load i32, ptr %37, align 4
  %or29 = or i32 %38, 2
  store i32 %or29, ptr %37, align 4
  br label %if.end30

if.end30:                                         ; preds = %if.then28, %if.end25
  %39 = load i32, ptr %sarg, align 4
  %and31 = and i32 %39, 4
  %tobool32 = icmp ne i32 %and31, 0
  br i1 %tobool32, label %if.then33, label %if.end35

if.then33:                                        ; preds = %if.end30
  %40 = load ptr, ptr %targ, align 8
  %41 = load i32, ptr %40, align 4
  %or34 = or i32 %41, 4
  store i32 %or34, ptr %40, align 4
  br label %if.end35

if.end35:                                         ; preds = %if.then33, %if.end30
  br label %sw.epilog

sw.bb36:                                          ; preds = %entry
  %42 = load ptr, ptr %arg.addr, align 8
  %43 = load i32, ptr %42, align 4
  store i32 %43, ptr %sarg37, align 4
  store i32 0, ptr %targ38, align 4
  %44 = load ptr, ptr %fioc, align 8
  %fd39 = getelementptr inbounds %struct.QIOChannelFile, ptr %44, i32 0, i32 1
  %45 = load i32, ptr %fd39, align 8
  %call40 = call i32 (i32, i64, ...) @ioctl(i32 noundef %45, i64 noundef 21525, ptr noundef %targ38) #8
  %46 = load i32, ptr %targ38, align 4
  %and41 = and i32 %46, -487
  store i32 %and41, ptr %targ38, align 4
  %47 = load i32, ptr %sarg37, align 4
  %and42 = and i32 %47, 32
  %tobool43 = icmp ne i32 %and42, 0
  br i1 %tobool43, label %if.then44, label %if.end46

if.then44:                                        ; preds = %sw.bb36
  %48 = load i32, ptr %targ38, align 4
  %or45 = or i32 %48, 32
  store i32 %or45, ptr %targ38, align 4
  br label %if.end46

if.end46:                                         ; preds = %if.then44, %sw.bb36
  %49 = load i32, ptr %sarg37, align 4
  %and47 = and i32 %49, 64
  %tobool48 = icmp ne i32 %and47, 0
  br i1 %tobool48, label %if.then49, label %if.end51

if.then49:                                        ; preds = %if.end46
  %50 = load i32, ptr %targ38, align 4
  %or50 = or i32 %50, 64
  store i32 %or50, ptr %targ38, align 4
  br label %if.end51

if.end51:                                         ; preds = %if.then49, %if.end46
  %51 = load i32, ptr %sarg37, align 4
  %and52 = and i32 %51, 256
  %tobool53 = icmp ne i32 %and52, 0
  br i1 %tobool53, label %if.then54, label %if.end56

if.then54:                                        ; preds = %if.end51
  %52 = load i32, ptr %targ38, align 4
  %or55 = or i32 %52, 256
  store i32 %or55, ptr %targ38, align 4
  br label %if.end56

if.end56:                                         ; preds = %if.then54, %if.end51
  %53 = load i32, ptr %sarg37, align 4
  %and57 = and i32 %53, 128
  %tobool58 = icmp ne i32 %and57, 0
  br i1 %tobool58, label %if.then59, label %if.end61

if.then59:                                        ; preds = %if.end56
  %54 = load i32, ptr %targ38, align 4
  %or60 = or i32 %54, 128
  store i32 %or60, ptr %targ38, align 4
  br label %if.end61

if.end61:                                         ; preds = %if.then59, %if.end56
  %55 = load i32, ptr %sarg37, align 4
  %and62 = and i32 %55, 2
  %tobool63 = icmp ne i32 %and62, 0
  br i1 %tobool63, label %if.then64, label %if.end66

if.then64:                                        ; preds = %if.end61
  %56 = load i32, ptr %targ38, align 4
  %or65 = or i32 %56, 2
  store i32 %or65, ptr %targ38, align 4
  br label %if.end66

if.end66:                                         ; preds = %if.then64, %if.end61
  %57 = load i32, ptr %sarg37, align 4
  %and67 = and i32 %57, 4
  %tobool68 = icmp ne i32 %and67, 0
  br i1 %tobool68, label %if.then69, label %if.end71

if.then69:                                        ; preds = %if.end66
  %58 = load i32, ptr %targ38, align 4
  %or70 = or i32 %58, 4
  store i32 %or70, ptr %targ38, align 4
  br label %if.end71

if.end71:                                         ; preds = %if.then69, %if.end66
  %59 = load ptr, ptr %fioc, align 8
  %fd72 = getelementptr inbounds %struct.QIOChannelFile, ptr %59, i32 0, i32 1
  %60 = load i32, ptr %fd72, align 8
  %call73 = call i32 (i32, i64, ...) @ioctl(i32 noundef %60, i64 noundef 21528, ptr noundef %targ38) #8
  br label %sw.epilog

sw.default:                                       ; preds = %entry
  store i32 -95, ptr %retval, align 4
  br label %return

sw.epilog:                                        ; preds = %if.end71, %if.end35, %if.end, %sw.bb
  store i32 0, ptr %retval, align 4
  br label %return

return:                                           ; preds = %sw.epilog, %sw.default
  %61 = load i32, ptr %retval, align 4
  ret i32 %61
}