; Function Attrs: nounwind sspstrong uwtable
define internal range(i32 -95, 1) i32 @tty_serial_ioctl(ptr noundef %chr, i32 noundef %cmd, ptr noundef captures(none) %arg) #0 {
entry:
  %sarg = alloca i32, align 4
  %targ38 = alloca i32, align 4
  %call.i = tail call ptr @object_dynamic_cast_assert(ptr noundef %chr, ptr noundef nonnull @.str.1, ptr noundef nonnull @.str.8, i32 noundef 42, ptr noundef nonnull @__func__.FD_CHARDEV) #7
  %ioc_in = getelementptr inbounds nuw i8, ptr %call.i, i64 152
  %0 = load ptr, ptr %ioc_in, align 8
  %call.i22 = tail call ptr @object_dynamic_cast_assert(ptr noundef %0, ptr noundef nonnull @.str.9, ptr noundef nonnull @.str.10, i32 noundef 28, ptr noundef nonnull @__func__.QIO_CHANNEL_FILE) #7
  switch i32 %cmd, label %return [
    i32 1, label %sw.bb
    i32 2, label %sw.bb2
    i32 14, label %sw.bb5
    i32 13, label %sw.bb36
  ]

sw.bb:                                            ; preds = %entry
  %fd = getelementptr inbounds nuw i8, ptr %call.i22, i64 96
  %1 = load i32, ptr %fd, align 8
  %2 = load i32, ptr %arg, align 4
  %parity = getelementptr inbounds nuw i8, ptr %arg, i64 4
  %3 = load i32, ptr %parity, align 4
  %data_bits = getelementptr inbounds nuw i8, ptr %arg, i64 8
  %4 = load i32, ptr %data_bits, align 4
  %stop_bits = getelementptr inbounds nuw i8, ptr %arg, i64 12
  %5 = load i32, ptr %stop_bits, align 4
  tail call fastcc void @tty_serial_init(i32 noundef %1, i32 noundef %2, i32 noundef %3, i32 noundef %4, i32 noundef %5)
  br label %return

sw.bb2:                                           ; preds = %entry
  %6 = load i32, ptr %arg, align 4
  %tobool.not = icmp eq i32 %6, 0
  br i1 %tobool.not, label %return, label %if.then

if.then:                                          ; preds = %sw.bb2
  %fd3 = getelementptr inbounds nuw i8, ptr %call.i22, i64 96
  %7 = load i32, ptr %fd3, align 8
  %call4 = tail call i32 @tcsendbreak(i32 noundef %7, i32 noundef 1) #7
  br label %return

sw.bb5:                                           ; preds = %entry
  store i32 0, ptr %sarg, align 4
  %fd6 = getelementptr inbounds nuw i8, ptr %call.i22, i64 96
  %8 = load i32, ptr %fd6, align 8
  %call7 = call i32 (i32, i64, ...) @ioctl(i32 noundef %8, i64 noundef 21525, ptr noundef nonnull %sarg) #7
  %9 = load i32, ptr %sarg, align 4
  %10 = and i32 %9, 482
  store i32 %10, ptr %arg, align 4
  %and31 = and i32 %9, 4
  %tobool32.not = icmp eq i32 %and31, 0
  br i1 %tobool32.not, label %return, label %if.then33

if.then33:                                        ; preds = %sw.bb5
  %or34 = or disjoint i32 %10, 4
  store i32 %or34, ptr %arg, align 4
  br label %return

sw.bb36:                                          ; preds = %entry
  %11 = load i32, ptr %arg, align 4
  store i32 0, ptr %targ38, align 4
  %fd39 = getelementptr inbounds nuw i8, ptr %call.i22, i64 96
  %12 = load i32, ptr %fd39, align 8
  %call40 = call i32 (i32, i64, ...) @ioctl(i32 noundef %12, i64 noundef 21525, ptr noundef nonnull %targ38) #7
  %13 = load i32, ptr %targ38, align 4
  %and41 = and i32 %13, -487
  %14 = and i32 %11, 486
  %storemerge = or disjoint i32 %and41, %14
  store i32 %storemerge, ptr %targ38, align 4
  %15 = load i32, ptr %fd39, align 8
  %call73 = call i32 (i32, i64, ...) @ioctl(i32 noundef %15, i64 noundef 21528, ptr noundef nonnull %targ38) #7
  br label %return

return:                                           ; preds = %sw.bb, %sw.bb36, %if.then, %sw.bb2, %if.then33, %sw.bb5, %entry
  %retval.0 = phi i32 [ -95, %entry ], [ 0, %sw.bb5 ], [ 0, %if.then33 ], [ 0, %sw.bb2 ], [ 0, %if.then ], [ 0, %sw.bb36 ], [ 0, %sw.bb ]
  ret i32 %retval.0
}